; Function Attrs: nounwind uwtable
define ptr @Bmc_CexTarget(ptr noundef %0, i32 noundef %1) local_unnamed_addr #0 {
  %3 = alloca ptr, align 8
  call void @llvm.lifetime.start.p0(i64 8, ptr nonnull %3) #17
  %4 = getelementptr i8, ptr %0, i64 16
  %.val17 = load i32, ptr %4, align 8, !tbaa !33
  %5 = getelementptr i8, ptr %0, i64 64
  %.val18 = load ptr, ptr %5, align 8, !tbaa !34
  %6 = getelementptr i8, ptr %.val18, i64 4
  %.val18.val = load i32, ptr %6, align 4, !tbaa !35
  %7 = sub i32 %.val18.val, %.val17
  %8 = mul i32 %7, %1
  %9 = tail call ptr @Bmc_CexTargetEnlarge(ptr noundef %0, i32 noundef %1)
  %10 = icmp sgt i32 %8, 0
  br i1 %10, label %.lr.ph, label %._crit_edge

.lr.ph:                                           ; preds = %2, %18
  %.020 = phi i32 [ %20, %18 ], [ 0, %2 ]
  %11 = phi ptr [ %19, %18 ], [ %9, %2 ]
  %12 = tail call i32 (ptr, ...) @printf(ptr noundef nonnull dereferenceable(1) @.str, i32 noundef %.020)
  %.val = load i32, ptr %4, align 8, !tbaa !33
  %.val16 = load ptr, ptr %5, align 8, !tbaa !34
  %13 = getelementptr i8, ptr %.val16, i64 4
  %.val16.val = load i32, ptr %13, align 4, !tbaa !35
  %14 = sub nsw i32 %.val16.val, %.val
  %15 = srem i32 %.020, %14
  %16 = icmp eq i32 %15, 0
  br i1 %16, label %17, label %18

17:                                               ; preds = %.lr.ph
  tail call void @Gia_ManPrintStats(ptr noundef %11, ptr noundef null) #17
  br label %18

18:                                               ; preds = %17, %.lr.ph
  %19 = tail call ptr @Gia_ManDupExist(ptr noundef %11, i32 noundef %.020) #17
  tail call void @Gia_ManStop(ptr noundef %11) #17
  %20 = add nuw nsw i32 %.020, 1
  %exitcond.not = icmp eq i32 %20, %8
  br i1 %exitcond.not, label %._crit_edge, label %.lr.ph, !llvm.loop !50

._crit_edge:                                      ; preds = %18, %2
  %.lcssa = phi ptr [ %9, %2 ], [ %19, %18 ]
  tail call void @Gia_ManPrintStats(ptr noundef %.lcssa, ptr noundef null) #17
  %.val19 = load i32, ptr %4, align 8, !tbaa !33
  %21 = tail call ptr @Gia_ManDupLastPis(ptr noundef %.lcssa, i32 noundef %.val19) #17
  store ptr %21, ptr %3, align 8, !tbaa !51
  tail call void @Gia_ManStop(ptr noundef %.lcssa) #17
  tail call void @Gia_ManPrintStats(ptr noundef %21, ptr noundef null) #17
  %22 = call ptr @Gia_ManDupAppendCones(ptr noundef nonnull %0, ptr noundef nonnull %3, i32 noundef 1, i32 noundef 1) #17
  %23 = load ptr, ptr %3, align 8, !tbaa !51
  call void @Gia_ManStop(ptr noundef %23) #17
  call void @Gia_AigerWrite(ptr noundef %22, ptr noundef nonnull @.str.1, i32 noundef 0, i32 noundef 0, i32 noundef 0) #17
  call void @llvm.lifetime.end.p0(i64 8, ptr nonnull %3) #17
  ret ptr %22
}